target datalayout = "e-m:e-p270:32:32-p271:32:32-p272:64:64-i64:64-i128:128-f80:128-n8:16:32:64-S128"
target triple = "x86_64-pc-linux-gnu"

%struct.llama_sampler = type { ptr, ptr }
%struct.llama_sampler_top_k = type { i32 }

; Function Attrs: mustprogress uwtable
define ptr @llama_sampler_init(ptr noundef %0, ptr noundef %1) #0 {
  %3 = alloca ptr, align 8
  %4 = alloca ptr, align 8
  store ptr %0, ptr %3, align 8, !tbaa !3
  store ptr %1, ptr %4, align 8, !tbaa !8
  %5 = call noalias noundef nonnull ptr @_Znwm(i64 noundef 16) #19
  %6 = getelementptr inbounds nuw %struct.llama_sampler, ptr %5, i32 0, i32 0
  %7 = load ptr, ptr %3, align 8, !tbaa !3
  store ptr %7, ptr %6, align 16, !tbaa !9
  %8 = getelementptr inbounds nuw %struct.llama_sampler, ptr %5, i32 0, i32 1
  %9 = load ptr, ptr %4, align 8, !tbaa !8
  store ptr %9, ptr %8, align 8, !tbaa !11
  ret ptr %5
}

; Function Attrs: mustprogress uwtable
define ptr @llama_sampler_init_top_k(i32 noundef %0) #0 {
  %2 = alloca i32, align 4
  store i32 %0, ptr %2, align 4, !tbaa !16
  %3 = call noalias noundef nonnull ptr @_Znwm(i64 noundef 4) #19
  %4 = getelementptr inbounds nuw %struct.llama_sampler_top_k, ptr %3, i32 0, i32 0
  %5 = load i32, ptr %2, align 4, !tbaa !16
  store i32 %5, ptr %4, align 4, !tbaa !94
  %6 = call ptr @llama_sampler_init(ptr noundef @_ZL21llama_sampler_top_k_i, ptr noundef %3)
  ret ptr %6
}

; Function Attrs: mustprogress uwtable
define internal noundef ptr @_ZL25llama_sampler_top_k_clonePK13llama_sampler(ptr noundef %0) #0 {
  %2 = alloca ptr, align 8
  %3 = alloca ptr, align 8
  store ptr %0, ptr %2, align 8, !tbaa !12
  call void @llvm.lifetime.start.p0(i64 8, ptr %3) #14
  %4 = load ptr, ptr %2, align 8, !tbaa !12
  %5 = getelementptr inbounds nuw %struct.llama_sampler, ptr %4, i32 0, i32 1
  %6 = load ptr, ptr %5, align 8, !tbaa !11
  store ptr %6, ptr %3, align 8, !tbaa !369
  %7 = load ptr, ptr %3, align 8, !tbaa !369
  %8 = getelementptr inbounds nuw %struct.llama_sampler_top_k, ptr %7, i32 0, i32 0
  %9 = load i32, ptr %8, align 4, !tbaa !94
  %10 = call ptr @llama_sampler_init_top_k(i32 noundef %9)
  call void @llvm.lifetime.end.p0(i64 8, ptr %3) #14
  ret ptr %10
}