; Function Attrs: mustprogress uwtable
define internal noalias noundef nonnull ptr @_ZL25llama_sampler_top_k_clonePK13llama_sampler(ptr noundef readonly captures(none) %0) #0 {
  %2 = getelementptr inbounds nuw i8, ptr %0, i64 8
  %3 = load ptr, ptr %2, align 8, !tbaa !9
  %4 = load i32, ptr %3, align 4, !tbaa !59
  %5 = tail call noalias noundef nonnull dereferenceable(4) ptr @_Znwm(i64 noundef 4) #30
  store i32 %4, ptr %5, align 4, !tbaa !59
  %6 = tail call noalias noundef nonnull dereferenceable(16) ptr @_Znwm(i64 noundef 16) #30
  store ptr @_ZL21llama_sampler_top_k_i, ptr %6, align 16, !tbaa !3
  %7 = getelementptr inbounds nuw i8, ptr %6, i64 8
  store ptr %5, ptr %7, align 8, !tbaa !9
  ret ptr %6
}